target datalayout = "e-m:e-p270:32:32-p271:32:32-p272:64:64-i64:64-i128:128-f80:128-n8:16:32:64-S128"
target triple = "x86_64-pc-linux-gnu"

%struct._zend_executor_globals = type { %struct._zval_struct, %struct._zval_struct, [32 x ptr], ptr, ptr, %struct._zend_array, %struct._zend_array, ptr, i32, i32, ptr, ptr, ptr, ptr, ptr, ptr, i64, ptr, ptr, i32, i32, i64, i32, i32, i32, i8, i8, %struct.zend_atomic_bool_s, %struct.zend_atomic_bool_s, ptr, i64, ptr, ptr, %struct._zend_array, %struct._zend_array, i32, i8, %struct._zval_struct, %struct._zval_struct, %struct._zend_stack, %struct._zend_stack, %struct._zend_stack, ptr, i32, i32, i64, ptr, ptr, ptr, %struct._zend_objects_store, ptr, ptr, ptr, [3 x %struct._zend_op], ptr, i8, i8, i64, i32, i32, ptr, [16 x %struct._HashTableIterator], ptr, %union._zend_function, %struct._zend_op, %struct._zend_array, i64, %struct.zend_get_gc_buffer, ptr, ptr, ptr, i64, i8, i32, ptr, ptr, i64, %struct._zend_call_stack, i64, i64, [6 x ptr] }
%struct.zend_atomic_bool_s = type { i8 }
%struct._zval_struct = type { %union._zend_value, %union.anon, %union.anon.2 }
%union._zend_value = type { i64 }
%union.anon = type { i32 }
%union.anon.2 = type { i32 }
%struct._zend_stack = type { i32, i32, i32, ptr }
%struct._zend_objects_store = type { ptr, i32, i32, i32 }
%struct._HashTableIterator = type { ptr, i32, i32 }
%union._zend_function = type { %struct._zend_op_array }
%struct._zend_op_array = type { i8, [3 x i8], i32, ptr, ptr, ptr, i32, i32, ptr, ptr, ptr, ptr, i32, i32, i32, i32, ptr, ptr, ptr, ptr, ptr, i32, i32, ptr, ptr, ptr, i32, i32, i32, i32, ptr, ptr, [6 x ptr] }
%struct._zend_op = type { ptr, %union._znode_op, %union._znode_op, %union._znode_op, i32, i32, i8, i8, i8, i8 }
%union._znode_op = type { i32 }
%struct._zend_array = type { %struct._zend_refcounted_h, %union.anon.4, i32, %union.anon.6, i32, i32, i32, i32, i64, ptr }
%struct._zend_refcounted_h = type { i32, %union.anon.3 }
%union.anon.3 = type { i32 }
%union.anon.4 = type { i32 }
%union.anon.6 = type { ptr }
%struct.zend_get_gc_buffer = type { ptr, ptr, ptr }
%struct._zend_call_stack = type { ptr, i64 }
%struct._zend_string = type { %struct._zend_refcounted_h, i64, i64, [1 x i8] }
%struct.anon.0 = type { i8, i8, %union.anon.1 }
%union.anon.1 = type { i16 }
%struct._Bucket = type { %struct._zval_struct, i64, ptr }

@executor_globals = external global %struct._zend_executor_globals, align 8
@.str.4 = private unnamed_addr constant [8 x i8] c"GLOBALS\00", align 1

; Function Attrs: nounwind uwtable
define internal void @php_autoglobal_merge(ptr noundef %0, ptr noundef %1) #0 {
  %3 = alloca ptr, align 8
  %4 = alloca ptr, align 8
  %5 = alloca i64, align 8
  %6 = alloca ptr, align 8
  %7 = alloca ptr, align 8
  %8 = alloca ptr, align 8
  %9 = alloca ptr, align 8
  %10 = alloca ptr, align 8
  %11 = alloca ptr, align 8
  %12 = alloca ptr, align 8
  %13 = alloca ptr, align 8
  %14 = alloca ptr, align 8
  %15 = alloca ptr, align 8
  %16 = alloca ptr, align 8
  %17 = alloca ptr, align 8
  %18 = alloca ptr, align 8
  %19 = alloca ptr, align 8
  %20 = alloca i64, align 8
  %21 = alloca i32, align 4
  %22 = alloca ptr, align 8
  %23 = alloca i64, align 8
  %24 = alloca ptr, align 8
  %25 = alloca i32, align 4
  %26 = alloca i64, align 8
  %27 = alloca ptr, align 8
  %28 = alloca i32, align 4
  %29 = alloca ptr, align 8
  %30 = alloca ptr, align 8
  %31 = alloca ptr, align 8
  %32 = alloca ptr, align 8
  %33 = alloca ptr, align 8
  %34 = alloca ptr, align 8
  store ptr %0, ptr %15, align 8
  store ptr %1, ptr %16, align 8
  %35 = load ptr, ptr %15, align 8
  %36 = icmp eq ptr %35, getelementptr inbounds (%struct._zend_executor_globals, ptr @executor_globals, i32 0, i32 5)
  %37 = zext i1 %36 to i32
  store i32 %37, ptr %21, align 4
  br label %38

38:                                               ; preds = %2
  %39 = load ptr, ptr %16, align 8
  store ptr %39, ptr %22, align 8
  store ptr null, ptr %24, align 8
  store i32 0, ptr %25, align 4
  %40 = load ptr, ptr %22, align 8
  %41 = getelementptr inbounds %struct._zend_array, ptr %40, i32 0, i32 1
  %42 = load i32, ptr %41, align 8
  %43 = xor i32 %42, -1
  %44 = and i32 %43, 4
  %45 = zext i32 %44 to i64
  %46 = mul i64 %45, 4
  %47 = add i64 16, %46
  store i64 %47, ptr %26, align 8
  %48 = load ptr, ptr %22, align 8
  %49 = getelementptr inbounds %struct._zend_array, ptr %48, i32 0, i32 3
  %50 = load ptr, ptr %49, align 8
  %51 = load i32, ptr %25, align 4
  %52 = zext i32 %51 to i64
  %53 = load i64, ptr %26, align 8
  %54 = mul i64 %52, %53
  %55 = getelementptr inbounds i8, ptr %50, i64 %54
  store ptr %55, ptr %27, align 8
  %56 = load ptr, ptr %22, align 8
  %57 = getelementptr inbounds %struct._zend_array, ptr %56, i32 0, i32 4
  %58 = load i32, ptr %57, align 8
  %59 = load i32, ptr %25, align 4
  %60 = sub i32 %58, %59
  store i32 %60, ptr %28, align 4
  br label %61

61:                                               ; preds = %266, %38
  %62 = load i32, ptr %28, align 4
  %63 = icmp ugt i32 %62, 0
  br i1 %63, label %64, label %269

64:                                               ; preds = %61
  %65 = load ptr, ptr %27, align 8
  store ptr %65, ptr %29, align 8
  %66 = load ptr, ptr %22, align 8
  %67 = getelementptr inbounds %struct._zend_array, ptr %66, i32 0, i32 1
  %68 = load i32, ptr %67, align 8
  %69 = and i32 %68, 4
  %70 = icmp ne i32 %69, 0
  br i1 %70, label %71, label %78

71:                                               ; preds = %64
  %72 = load ptr, ptr %27, align 8
  %73 = getelementptr inbounds %struct._zval_struct, ptr %72, i32 1
  store ptr %73, ptr %27, align 8
  %74 = load i32, ptr %25, align 4
  %75 = zext i32 %74 to i64
  store i64 %75, ptr %23, align 8
  %76 = load i32, ptr %25, align 4
  %77 = add i32 %76, 1
  store i32 %77, ptr %25, align 4
  br label %89

78:                                               ; preds = %64
  %79 = load ptr, ptr %27, align 8
  store ptr %79, ptr %30, align 8
  %80 = load ptr, ptr %30, align 8
  %81 = getelementptr inbounds %struct._Bucket, ptr %80, i64 1
  %82 = getelementptr inbounds %struct._Bucket, ptr %81, i32 0, i32 0
  store ptr %82, ptr %27, align 8
  %83 = load ptr, ptr %30, align 8
  %84 = getelementptr inbounds %struct._Bucket, ptr %83, i32 0, i32 1
  %85 = load i64, ptr %84, align 8
  store i64 %85, ptr %23, align 8
  %86 = load ptr, ptr %30, align 8
  %87 = getelementptr inbounds %struct._Bucket, ptr %86, i32 0, i32 2
  %88 = load ptr, ptr %87, align 8
  store ptr %88, ptr %24, align 8
  br label %89

89:                                               ; preds = %78, %71
  %90 = load ptr, ptr %29, align 8
  store ptr %90, ptr %12, align 8
  %91 = load ptr, ptr %12, align 8
  %92 = getelementptr inbounds %struct._zval_struct, ptr %91, i32 0, i32 1
  %93 = load i8, ptr %92, align 8
  %94 = zext i8 %93 to i32
  %95 = icmp eq i32 %94, 0
  %96 = xor i1 %95, true
  %97 = xor i1 %96, true
  %98 = zext i1 %97 to i32
  %99 = sext i32 %98 to i64
  %100 = icmp ne i64 %99, 0
  br i1 %100, label %101, label %102

101:                                              ; preds = %89
  br label %266

102:                                              ; preds = %89
  %103 = load i64, ptr %23, align 8
  store i64 %103, ptr %20, align 8
  %104 = load ptr, ptr %24, align 8
  store ptr %104, ptr %19, align 8
  %105 = load ptr, ptr %29, align 8
  store ptr %105, ptr %17, align 8
  %106 = load ptr, ptr %17, align 8
  store ptr %106, ptr %13, align 8
  %107 = load ptr, ptr %13, align 8
  %108 = getelementptr inbounds %struct._zval_struct, ptr %107, i32 0, i32 1
  %109 = load i8, ptr %108, align 8
  %110 = zext i8 %109 to i32
  %111 = icmp ne i32 %110, 7
  br i1 %111, label %135, label %112

112:                                              ; preds = %102
  %113 = load ptr, ptr %19, align 8
  %114 = icmp ne ptr %113, null
  br i1 %114, label %115, label %120

115:                                              ; preds = %112
  %116 = load ptr, ptr %15, align 8
  %117 = load ptr, ptr %19, align 8
  %118 = call ptr @zend_hash_find(ptr noundef %116, ptr noundef %117)
  store ptr %118, ptr %18, align 8
  %119 = icmp eq ptr %118, null
  br i1 %119, label %135, label %120

120:                                              ; preds = %115, %112
  %121 = load ptr, ptr %19, align 8
  %122 = icmp eq ptr %121, null
  br i1 %122, label %123, label %128

123:                                              ; preds = %120
  %124 = load ptr, ptr %15, align 8
  %125 = load i64, ptr %20, align 8
  %126 = call ptr @zend_hash_index_find(ptr noundef %124, i64 noundef %125)
  store ptr %126, ptr %18, align 8
  %127 = icmp eq ptr %126, null
  br i1 %127, label %135, label %128

128:                                              ; preds = %123, %120
  %129 = load ptr, ptr %18, align 8
  store ptr %129, ptr %14, align 8
  %130 = load ptr, ptr %14, align 8
  %131 = getelementptr inbounds %struct._zval_struct, ptr %130, i32 0, i32 1
  %132 = load i8, ptr %131, align 8
  %133 = zext i8 %132 to i32
  %134 = icmp ne i32 %133, 7
  br i1 %134, label %135, label %218

135:                                              ; preds = %128, %123, %115, %102
  br label %136

136:                                              ; preds = %135
  %137 = load ptr, ptr %17, align 8
  %138 = getelementptr inbounds %struct._zval_struct, ptr %137, i32 0, i32 1
  %139 = getelementptr inbounds %struct.anon.0, ptr %138, i32 0, i32 1
  %140 = load i8, ptr %139, align 1
  %141 = zext i8 %140 to i32
  %142 = icmp ne i32 %141, 0
  br i1 %142, label %143, label %156

143:                                              ; preds = %136
  %144 = load ptr, ptr %17, align 8
  store ptr %144, ptr %9, align 8
  %145 = load ptr, ptr %9, align 8
  %146 = getelementptr inbounds %struct._zval_struct, ptr %145, i32 0, i32 1
  %147 = getelementptr inbounds %struct.anon.0, ptr %146, i32 0, i32 1
  %148 = load i8, ptr %147, align 1
  %149 = zext i8 %148 to i32
  %150 = icmp ne i32 %149, 0
  call void @llvm.assume(i1 %150)
  %151 = load ptr, ptr %9, align 8
  %152 = load ptr, ptr %151, align 8
  store ptr %152, ptr %6, align 8
  %153 = load ptr, ptr %6, align 8
  %154 = load i32, ptr %153, align 4
  %155 = add i32 %154, 1
  store i32 %155, ptr %153, align 4
  br label %156

156:                                              ; preds = %143, %136
  br label %157

157:                                              ; preds = %156
  %158 = load ptr, ptr %19, align 8
  %159 = icmp ne ptr %158, null
  br i1 %159, label %160, label %212

160:                                              ; preds = %157
  %161 = load i32, ptr %21, align 4
  %162 = icmp ne i32 %161, 0
  br i1 %162, label %163, label %180

163:                                              ; preds = %160
  %164 = load ptr, ptr %19, align 8
  store ptr %164, ptr %3, align 8
  store ptr @.str.4, ptr %4, align 8
  store i64 7, ptr %5, align 8
  %165 = load ptr, ptr %3, align 8
  %166 = getelementptr inbounds %struct._zend_string, ptr %165, i32 0, i32 2
  %167 = load i64, ptr %166, align 8
  %168 = load i64, ptr %5, align 8
  %169 = icmp eq i64 %167, %168
  br i1 %169, label %170, label %178

170:                                              ; preds = %163
  %171 = load ptr, ptr %3, align 8
  %172 = getelementptr inbounds %struct._zend_string, ptr %171, i32 0, i32 3
  %173 = load ptr, ptr %4, align 8
  %174 = load i64, ptr %5, align 8
  %175 = call i32 @memcmp(ptr noundef %172, ptr noundef %173, i64 noundef %174) #11
  %176 = icmp ne i32 %175, 0
  %177 = xor i1 %176, true
  br label %178

178:                                              ; preds = %170, %163
  %179 = phi i1 [ false, %163 ], [ %177, %170 ]
  br i1 %179, label %185, label %180

180:                                              ; preds = %178, %160
  %181 = load ptr, ptr %15, align 8
  %182 = load ptr, ptr %19, align 8
  %183 = load ptr, ptr %17, align 8
  %184 = call ptr @zend_hash_update(ptr noundef %181, ptr noundef %182, ptr noundef %183)
  br label %211

185:                                              ; preds = %178
  br label %186

186:                                              ; preds = %185
  %187 = load ptr, ptr %17, align 8
  %188 = getelementptr inbounds %struct._zval_struct, ptr %187, i32 0, i32 1
  %189 = getelementptr inbounds %struct.anon.0, ptr %188, i32 0, i32 1
  %190 = load i8, ptr %189, align 1
  %191 = zext i8 %190 to i32
  %192 = icmp ne i32 %191, 0
  br i1 %192, label %193, label %209

193:                                              ; preds = %186
  %194 = load ptr, ptr %17, align 8
  store ptr %194, ptr %8, align 8
  %195 = load ptr, ptr %8, align 8
  %196 = getelementptr inbounds %struct._zval_struct, ptr %195, i32 0, i32 1
  %197 = getelementptr inbounds %struct.anon.0, ptr %196, i32 0, i32 1
  %198 = load i8, ptr %197, align 1
  %199 = zext i8 %198 to i32
  %200 = icmp ne i32 %199, 0
  call void @llvm.assume(i1 %200)
  %201 = load ptr, ptr %8, align 8
  %202 = load ptr, ptr %201, align 8
  store ptr %202, ptr %7, align 8
  %203 = load ptr, ptr %7, align 8
  %204 = load i32, ptr %203, align 4
  %205 = icmp ugt i32 %204, 0
  call void @llvm.assume(i1 %205)
  %206 = load ptr, ptr %7, align 8
  %207 = load i32, ptr %206, align 4
  %208 = add i32 %207, -1
  store i32 %208, ptr %206, align 4
  br label %209

209:                                              ; preds = %193, %186
  br label %210

210:                                              ; preds = %209
  br label %211

211:                                              ; preds = %210, %180
  br label %217

212:                                              ; preds = %157
  %213 = load ptr, ptr %15, align 8
  %214 = load i64, ptr %20, align 8
  %215 = load ptr, ptr %17, align 8
  %216 = call ptr @zend_hash_index_update(ptr noundef %213, i64 noundef %214, ptr noundef %215)
  br label %217

217:                                              ; preds = %212, %211
  br label %265

218:                                              ; preds = %128
  br label %219

219:                                              ; preds = %218
  %220 = load ptr, ptr %18, align 8
  store ptr %220, ptr %31, align 8
  %221 = load ptr, ptr %31, align 8
  %222 = getelementptr inbounds %struct._zval_struct, ptr %221, i32 0, i32 0
  %223 = load ptr, ptr %222, align 8
  store ptr %223, ptr %32, align 8
  %224 = load ptr, ptr %32, align 8
  %225 = getelementptr inbounds %struct._zend_array, ptr %224, i32 0, i32 0
  store ptr %225, ptr %11, align 8
  %226 = load ptr, ptr %11, align 8
  %227 = load i32, ptr %226, align 4
  %228 = icmp ugt i32 %227, 1
  %229 = xor i1 %228, true
  %230 = xor i1 %229, true
  %231 = zext i1 %230 to i32
  %232 = sext i32 %231 to i64
  %233 = icmp ne i64 %232, 0
  br i1 %233, label %234, label %257

234:                                              ; preds = %219
  br label %235

235:                                              ; preds = %234
  %236 = load ptr, ptr %32, align 8
  %237 = call ptr @zend_array_dup(ptr noundef %236)
  store ptr %237, ptr %33, align 8
  %238 = load ptr, ptr %31, align 8
  store ptr %238, ptr %34, align 8
  %239 = load ptr, ptr %33, align 8
  %240 = load ptr, ptr %34, align 8
  %241 = getelementptr inbounds %struct._zval_struct, ptr %240, i32 0, i32 0
  store ptr %239, ptr %241, align 8
  %242 = load ptr, ptr %34, align 8
  %243 = getelementptr inbounds %struct._zval_struct, ptr %242, i32 0, i32 1
  store i32 775, ptr %243, align 8
  br label %244

244:                                              ; preds = %235
  %245 = load ptr, ptr %32, align 8
  %246 = getelementptr inbounds %struct._zend_array, ptr %245, i32 0, i32 0
  store ptr %246, ptr %10, align 8
  %247 = load ptr, ptr %10, align 8
  %248 = getelementptr inbounds %struct._zend_refcounted_h, ptr %247, i32 0, i32 1
  %249 = load i32, ptr %248, align 4
  %250 = and i32 %249, 64
  %251 = icmp ne i32 %250, 0
  br i1 %251, label %256, label %252

252:                                              ; preds = %244
  %253 = load ptr, ptr %10, align 8
  %254 = load i32, ptr %253, align 4
  %255 = add i32 %254, -1
  store i32 %255, ptr %253, align 4
  br label %256

256:                                              ; preds = %252, %244
  br label %257

257:                                              ; preds = %256, %219
  br label %258

258:                                              ; preds = %257
  %259 = load ptr, ptr %18, align 8
  %260 = getelementptr inbounds %struct._zval_struct, ptr %259, i32 0, i32 0
  %261 = load ptr, ptr %260, align 8
  %262 = load ptr, ptr %17, align 8
  %263 = getelementptr inbounds %struct._zval_struct, ptr %262, i32 0, i32 0
  %264 = load ptr, ptr %263, align 8
  call void @php_autoglobal_merge(ptr noundef %261, ptr noundef %264)
  br label %265

265:                                              ; preds = %258, %217
  br label %266

266:                                              ; preds = %265, %101
  %267 = load i32, ptr %28, align 4
  %268 = add i32 %267, -1
  store i32 %268, ptr %28, align 4
  br label %61

269:                                              ; preds = %61
  br label %270

270:                                              ; preds = %269
  ret void
}