; Function Attrs: nounwind uwtable
define internal fastcc void @php_autoglobal_merge(ptr noundef %0, ptr nocapture noundef readonly %1) unnamed_addr #0 {
  %3 = icmp eq ptr %0, getelementptr inbounds (%struct._zend_executor_globals, ptr @executor_globals, i64 0, i32 5)
  %4 = getelementptr inbounds i8, ptr %1, i64 8
  %5 = getelementptr inbounds i8, ptr %1, i64 24
  %6 = load i32, ptr %5, align 8
  %.not95 = icmp eq i32 %6, 0
  br i1 %.not95, label %._crit_edge, label %.lr.ph.preheader

.lr.ph.preheader:                                 ; preds = %2
  %7 = getelementptr inbounds i8, ptr %1, i64 16
  %8 = load ptr, ptr %7, align 8
  br label %.lr.ph

.lr.ph:                                           ; preds = %.lr.ph.preheader, %74
  %.07399 = phi ptr [ %.174, %74 ], [ null, %.lr.ph.preheader ]
  %.07598 = phi i32 [ %.176, %74 ], [ 0, %.lr.ph.preheader ]
  %.07797 = phi ptr [ %.178, %74 ], [ %8, %.lr.ph.preheader ]
  %.07996 = phi i32 [ %75, %74 ], [ %6, %.lr.ph.preheader ]
  %9 = load i32, ptr %4, align 8
  %10 = and i32 %9, 4
  %.not85 = icmp eq i32 %10, 0
  br i1 %.not85, label %15, label %11

11:                                               ; preds = %.lr.ph
  %12 = getelementptr inbounds i8, ptr %.07797, i64 16
  %13 = zext i32 %.07598 to i64
  %14 = add i32 %.07598, 1
  br label %21

15:                                               ; preds = %.lr.ph
  %16 = getelementptr inbounds i8, ptr %.07797, i64 32
  %17 = getelementptr inbounds i8, ptr %.07797, i64 16
  %18 = load i64, ptr %17, align 8
  %19 = getelementptr inbounds i8, ptr %.07797, i64 24
  %20 = load ptr, ptr %19, align 8
  br label %21

21:                                               ; preds = %15, %11
  %.178 = phi ptr [ %12, %11 ], [ %16, %15 ]
  %.176 = phi i32 [ %14, %11 ], [ %.07598, %15 ]
  %.174 = phi ptr [ %.07399, %11 ], [ %20, %15 ]
  %.072 = phi i64 [ %13, %11 ], [ %18, %15 ]
  %22 = getelementptr inbounds i8, ptr %.07797, i64 8
  %23 = load i8, ptr %22, align 8
  switch i8 %23, label %34 [
    i8 0, label %74
    i8 7, label %24
  ]

24:                                               ; preds = %21
  %.not87 = icmp eq ptr %.174, null
  br i1 %.not87, label %28, label %25

25:                                               ; preds = %24
  %26 = tail call ptr @zend_hash_find(ptr noundef %0, ptr noundef nonnull %.174) #17
  %27 = icmp eq ptr %26, null
  br i1 %27, label %34, label %31

28:                                               ; preds = %24
  %29 = tail call ptr @zend_hash_index_find(ptr noundef %0, i64 noundef %.072) #17
  %30 = icmp eq ptr %29, null
  br i1 %30, label %34, label %31

31:                                               ; preds = %25, %28
  %.2 = phi ptr [ %29, %28 ], [ %26, %25 ]
  %32 = getelementptr inbounds i8, ptr %.2, i64 8
  %33 = load i8, ptr %32, align 8
  %.not88 = icmp eq i8 %33, 7
  br i1 %.not88, label %59, label %34

34:                                               ; preds = %21, %25, %28, %31
  %35 = getelementptr inbounds i8, ptr %.07797, i64 9
  %36 = load i8, ptr %35, align 1
  %.not90 = icmp eq i8 %36, 0
  br i1 %.not90, label %41, label %37

37:                                               ; preds = %34
  %38 = load ptr, ptr %.07797, align 8
  %39 = load i32, ptr %38, align 4
  %40 = add i32 %39, 1
  store i32 %40, ptr %38, align 4
  br label %41

41:                                               ; preds = %34, %37
  %.not91 = icmp eq ptr %.174, null
  br i1 %.not91, label %57, label %42

42:                                               ; preds = %41
  br i1 %3, label %43, label %.critedge

43:                                               ; preds = %42
  %44 = getelementptr inbounds i8, ptr %.174, i64 16
  %45 = load i64, ptr %44, align 8
  %46 = icmp eq i64 %45, 7
  br i1 %46, label %47, label %.critedge

47:                                               ; preds = %43
  %48 = getelementptr inbounds i8, ptr %.174, i64 24
  %bcmp = tail call i32 @bcmp(ptr noundef nonnull dereferenceable(7) %48, ptr noundef nonnull dereferenceable(7) @.str.4, i64 7)
  %.not92 = icmp eq i32 %bcmp, 0
  br i1 %.not92, label %50, label %.critedge

.critedge:                                        ; preds = %43, %47, %42
  %49 = tail call ptr @zend_hash_update(ptr noundef %0, ptr noundef nonnull %.174, ptr noundef nonnull %.07797) #17
  br label %74

50:                                               ; preds = %47
  %51 = load i8, ptr %35, align 1
  %.not93 = icmp eq i8 %51, 0
  br i1 %.not93, label %74, label %52

52:                                               ; preds = %50
  %53 = load ptr, ptr %.07797, align 8
  %54 = load i32, ptr %53, align 4
  %55 = icmp ne i32 %54, 0
  tail call void @llvm.assume(i1 %55)
  %56 = add i32 %54, -1
  store i32 %56, ptr %53, align 4
  br label %74

57:                                               ; preds = %41
  %58 = tail call ptr @zend_hash_index_update(ptr noundef %0, i64 noundef %.072, ptr noundef nonnull %.07797) #17
  br label %74

59:                                               ; preds = %31
  %60 = load ptr, ptr %.2, align 8
  %61 = load i32, ptr %60, align 4
  %62 = icmp ugt i32 %61, 1
  br i1 %62, label %63, label %71

63:                                               ; preds = %59
  %64 = tail call ptr @zend_array_dup(ptr noundef nonnull %60) #17
  store ptr %64, ptr %.2, align 8
  store i32 775, ptr %32, align 8
  %65 = getelementptr inbounds i8, ptr %60, i64 4
  %66 = load i32, ptr %65, align 4
  %67 = and i32 %66, 64
  %.not89 = icmp eq i32 %67, 0
  br i1 %.not89, label %68, label %71

68:                                               ; preds = %63
  %69 = load i32, ptr %60, align 4
  %70 = add i32 %69, -1
  store i32 %70, ptr %60, align 4
  %.pre = load ptr, ptr %.2, align 8
  br label %71

71:                                               ; preds = %59, %68, %63
  %72 = phi ptr [ %60, %59 ], [ %.pre, %68 ], [ %64, %63 ]
  %73 = load ptr, ptr %.07797, align 8
  tail call fastcc void @php_autoglobal_merge(ptr noundef %72, ptr noundef %73)
  br label %74

74:                                               ; preds = %21, %71, %.critedge, %50, %52, %57
  %75 = add i32 %.07996, -1
  %.not = icmp eq i32 %75, 0
  br i1 %.not, label %._crit_edge, label %.lr.ph

._crit_edge:                                      ; preds = %74, %2
  ret void
}